; Function Attrs: mustprogress uwtable
define noundef zeroext i1 @_ZNK10OpenSubdiv6v3_6_03Bfr14SurfaceFactory19FaceHasLimitSurfaceEi(ptr noundef nonnull align 8 dereferenceable(56) %0, i32 noundef %1) local_unnamed_addr #2 align 2 {
  %3 = load ptr, ptr %0, align 8
  %4 = getelementptr inbounds nuw i8, ptr %3, i64 24
  %5 = load ptr, ptr %4, align 8
  %6 = tail call noundef i32 %5(ptr noundef nonnull align 8 dereferenceable(8) %0, i32 noundef %1)
  %7 = add i32 %6, -65536
  %or.cond.i = icmp ult i32 %7, -65533
  br i1 %or.cond.i, label %_ZNK10OpenSubdiv6v3_6_03Bfr14SurfaceFactory18faceHasLimitSimpleEii.exit.thread, label %_ZNK10OpenSubdiv6v3_6_03Bfr14SurfaceFactory18faceHasLimitSimpleEii.exit

_ZNK10OpenSubdiv6v3_6_03Bfr14SurfaceFactory18faceHasLimitSimpleEii.exit: ; preds = %2
  %8 = load ptr, ptr %0, align 8
  %9 = getelementptr inbounds nuw i8, ptr %8, i64 16
  %10 = load ptr, ptr %9, align 8
  %11 = tail call noundef zeroext i1 %10(ptr noundef nonnull align 8 dereferenceable(56) %0, i32 noundef %1)
  br i1 %11, label %_ZNK10OpenSubdiv6v3_6_03Bfr14SurfaceFactory18faceHasLimitSimpleEii.exit.thread, label %12

12:                                               ; preds = %_ZNK10OpenSubdiv6v3_6_03Bfr14SurfaceFactory18faceHasLimitSimpleEii.exit
  %13 = getelementptr inbounds nuw i8, ptr %0, i64 40
  %14 = load i8, ptr %13, align 8
  %15 = and i8 %14, 4
  %.not = icmp eq i8 %15, 0
  br i1 %.not, label %_ZNK10OpenSubdiv6v3_6_03Bfr14SurfaceFactory18faceHasLimitSimpleEii.exit.thread, label %16

16:                                               ; preds = %12
  %17 = load ptr, ptr %0, align 8
  %18 = getelementptr inbounds nuw i8, ptr %17, i64 72
  %19 = load ptr, ptr %18, align 8
  %20 = tail call noundef zeroext i1 %19(ptr noundef nonnull align 8 dereferenceable(56) %0, i32 noundef %1, ptr noundef null)
  br i1 %20, label %_ZNK10OpenSubdiv6v3_6_03Bfr14SurfaceFactory18faceHasLimitSimpleEii.exit.thread, label %21

21:                                               ; preds = %16
  %22 = tail call noundef zeroext i1 @_ZNK10OpenSubdiv6v3_6_03Bfr14SurfaceFactory24faceHasLimitNeighborhoodEi(ptr noundef nonnull align 8 dereferenceable(56) %0, i32 noundef %1)
  br label %_ZNK10OpenSubdiv6v3_6_03Bfr14SurfaceFactory18faceHasLimitSimpleEii.exit.thread

_ZNK10OpenSubdiv6v3_6_03Bfr14SurfaceFactory18faceHasLimitSimpleEii.exit.thread: ; preds = %2, %12, %16, %_ZNK10OpenSubdiv6v3_6_03Bfr14SurfaceFactory18faceHasLimitSimpleEii.exit, %21
  %.0 = phi i1 [ %22, %21 ], [ false, %_ZNK10OpenSubdiv6v3_6_03Bfr14SurfaceFactory18faceHasLimitSimpleEii.exit ], [ true, %16 ], [ true, %12 ], [ false, %2 ]
  ret i1 %.0
}